target datalayout = "e-m:e-p270:32:32-p271:32:32-p272:64:64-i64:64-i128:128-f80:128-n8:16:32:64-S128"
target triple = "x86_64-pc-linux-gnu"

%struct.formnode = type { i16, i16, i16, i32, i32, i32, i32, i16, i16, i16, i32, ptr, ptr, ptr, ptr, ptr, ptr, ptr, ptr, ptr, ptr, ptr }
%struct.fieldnode = type { i16, i16, i16, i16, i16, i32, i32, i32, i32, i16, i16, i16, i16, i32, i32, i32, i32, ptr, ptr, ptr, ptr, ptr, ptr, ptr, ptr }

; Function Attrs: nounwind uwtable
define internal void @Adjust_Cursor_Position(ptr noundef %0, ptr noundef %1) #0 {
  %3 = alloca ptr, align 8
  %4 = alloca ptr, align 8
  %5 = alloca ptr, align 8
  %6 = alloca i32, align 4
  store ptr %0, ptr %3, align 8, !tbaa !4
  store ptr %1, ptr %4, align 8, !tbaa !55
  call void @llvm.lifetime.start.p0(i64 8, ptr %5) #9
  call void @llvm.lifetime.start.p0(i64 4, ptr %6) #9
  %7 = load ptr, ptr %3, align 8, !tbaa !4
  %8 = getelementptr inbounds nuw %struct.formnode, ptr %7, i32 0, i32 15
  %9 = load ptr, ptr %8, align 8, !tbaa !16
  store ptr %9, ptr %5, align 8, !tbaa !17
  %10 = load ptr, ptr %4, align 8, !tbaa !55
  %11 = load ptr, ptr %5, align 8, !tbaa !17
  %12 = getelementptr inbounds nuw %struct.fieldnode, ptr %11, i32 0, i32 23
  %13 = load ptr, ptr %12, align 8, !tbaa !54
  %14 = ptrtoint ptr %10 to i64
  %15 = ptrtoint ptr %13 to i64
  %16 = sub i64 %14, %15
  %17 = trunc i64 %16 to i32
  store i32 %17, ptr %6, align 4, !tbaa !35
  %18 = load i32, ptr %6, align 4, !tbaa !35
  %19 = load ptr, ptr %5, align 8, !tbaa !17
  %20 = getelementptr inbounds nuw %struct.fieldnode, ptr %19, i32 0, i32 6
  %21 = load i32, ptr %20, align 8, !tbaa !29
  %22 = sdiv i32 %18, %21
  %23 = load ptr, ptr %3, align 8, !tbaa !4
  %24 = getelementptr inbounds nuw %struct.formnode, ptr %23, i32 0, i32 3
  store i32 %22, ptr %24, align 8, !tbaa !21
  %25 = load i32, ptr %6, align 4, !tbaa !35
  %26 = load ptr, ptr %5, align 8, !tbaa !17
  %27 = getelementptr inbounds nuw %struct.fieldnode, ptr %26, i32 0, i32 2
  %28 = load i16, ptr %27, align 4, !tbaa !30
  %29 = sext i16 %28 to i32
  %30 = load ptr, ptr %3, align 8, !tbaa !4
  %31 = getelementptr inbounds nuw %struct.formnode, ptr %30, i32 0, i32 3
  %32 = load i32, ptr %31, align 8, !tbaa !21
  %33 = mul nsw i32 %29, %32
  %34 = sub nsw i32 %25, %33
  %35 = load ptr, ptr %3, align 8, !tbaa !4
  %36 = getelementptr inbounds nuw %struct.formnode, ptr %35, i32 0, i32 4
  store i32 %34, ptr %36, align 4, !tbaa !22
  %37 = load ptr, ptr %5, align 8, !tbaa !17
  %38 = getelementptr inbounds nuw %struct.fieldnode, ptr %37, i32 0, i32 5
  %39 = load i32, ptr %38, align 4, !tbaa !27
  %40 = load ptr, ptr %3, align 8, !tbaa !4
  %41 = getelementptr inbounds nuw %struct.formnode, ptr %40, i32 0, i32 3
  %42 = load i32, ptr %41, align 8, !tbaa !21
  %43 = icmp slt i32 %39, %42
  br i1 %43, label %44, label %47

44:                                               ; preds = %2
  %45 = load ptr, ptr %3, align 8, !tbaa !4
  %46 = getelementptr inbounds nuw %struct.formnode, ptr %45, i32 0, i32 3
  store i32 0, ptr %46, align 8, !tbaa !21
  br label %47

47:                                               ; preds = %44, %2
  call void @llvm.lifetime.end.p0(i64 4, ptr %6) #9
  call void @llvm.lifetime.end.p0(i64 8, ptr %5) #9
  ret void
}

; Function Attrs: nounwind uwtable
define internal ptr @After_End_Of_Data(ptr noundef %0, i32 noundef %1) #0 {
  %3 = alloca ptr, align 8
  %4 = alloca i32, align 4
  %5 = alloca ptr, align 8
  store ptr %0, ptr %3, align 8, !tbaa !55
  store i32 %1, ptr %4, align 4, !tbaa !35
  call void @llvm.lifetime.start.p0(i64 8, ptr %5) #9
  %6 = load ptr, ptr %3, align 8, !tbaa !55
  %7 = load i32, ptr %4, align 4, !tbaa !35
  %8 = sext i32 %7 to i64
  %9 = getelementptr inbounds i8, ptr %6, i64 %8
  store ptr %9, ptr %5, align 8, !tbaa !55
  br label %10

10:                                               ; preds = %22, %2
  %11 = load ptr, ptr %5, align 8, !tbaa !55
  %12 = load ptr, ptr %3, align 8, !tbaa !55
  %13 = icmp ugt ptr %11, %12
  br i1 %13, label %14, label %20

14:                                               ; preds = %10
  %15 = load ptr, ptr %5, align 8, !tbaa !55
  %16 = getelementptr inbounds i8, ptr %15, i64 -1
  %17 = load i8, ptr %16, align 1, !tbaa !65
  %18 = sext i8 %17 to i32
  %19 = icmp eq i32 %18, 32
  br label %20

20:                                               ; preds = %14, %10
  %21 = phi i1 [ false, %10 ], [ %19, %14 ]
  br i1 %21, label %22, label %25

22:                                               ; preds = %20
  %23 = load ptr, ptr %5, align 8, !tbaa !55
  %24 = getelementptr inbounds i8, ptr %23, i32 -1
  store ptr %24, ptr %5, align 8, !tbaa !55
  br label %10, !llvm.loop !116

25:                                               ; preds = %20
  %26 = load ptr, ptr %5, align 8, !tbaa !55
  call void @llvm.lifetime.end.p0(i64 8, ptr %5) #9
  ret ptr %26
}

; Function Attrs: nounwind uwtable
define internal i32 @IFN_End_Of_Line(ptr noundef %0) #0 {
  %2 = alloca ptr, align 8
  %3 = alloca ptr, align 8
  %4 = alloca ptr, align 8
  %5 = alloca ptr, align 8
  store ptr %0, ptr %2, align 8, !tbaa !4
  call void @llvm.lifetime.start.p0(i64 8, ptr %3) #9
  %6 = load ptr, ptr %2, align 8, !tbaa !4
  %7 = getelementptr inbounds nuw %struct.formnode, ptr %6, i32 0, i32 15
  %8 = load ptr, ptr %7, align 8, !tbaa !16
  store ptr %8, ptr %3, align 8, !tbaa !17
  call void @llvm.lifetime.start.p0(i64 8, ptr %4) #9
  call void @llvm.lifetime.start.p0(i64 8, ptr %5) #9
  %9 = load ptr, ptr %2, align 8, !tbaa !4
  call void @Synchronize_Buffer(ptr noundef %9)
  %10 = load ptr, ptr %2, align 8, !tbaa !4
  %11 = getelementptr inbounds nuw %struct.formnode, ptr %10, i32 0, i32 15
  %12 = load ptr, ptr %11, align 8, !tbaa !16
  %13 = getelementptr inbounds nuw %struct.fieldnode, ptr %12, i32 0, i32 23
  %14 = load ptr, ptr %13, align 8, !tbaa !54
  %15 = load ptr, ptr %2, align 8, !tbaa !4
  %16 = getelementptr inbounds nuw %struct.formnode, ptr %15, i32 0, i32 15
  %17 = load ptr, ptr %16, align 8, !tbaa !16
  %18 = getelementptr inbounds nuw %struct.fieldnode, ptr %17, i32 0, i32 5
  %19 = load i32, ptr %18, align 4, !tbaa !27
  %20 = load ptr, ptr %2, align 8, !tbaa !4
  %21 = getelementptr inbounds nuw %struct.formnode, ptr %20, i32 0, i32 15
  %22 = load ptr, ptr %21, align 8, !tbaa !16
  %23 = getelementptr inbounds nuw %struct.fieldnode, ptr %22, i32 0, i32 6
  %24 = load i32, ptr %23, align 8, !tbaa !29
  %25 = mul nsw i32 %19, %24
  %26 = add nsw i32 1, %25
  %27 = mul nsw i32 0, %26
  %28 = sext i32 %27 to i64
  %29 = getelementptr inbounds i8, ptr %14, i64 %28
  %30 = load ptr, ptr %2, align 8, !tbaa !4
  %31 = getelementptr inbounds nuw %struct.formnode, ptr %30, i32 0, i32 3
  %32 = load i32, ptr %31, align 8, !tbaa !21
  %33 = load ptr, ptr %2, align 8, !tbaa !4
  %34 = getelementptr inbounds nuw %struct.formnode, ptr %33, i32 0, i32 15
  %35 = load ptr, ptr %34, align 8, !tbaa !16
  %36 = getelementptr inbounds nuw %struct.fieldnode, ptr %35, i32 0, i32 6
  %37 = load i32, ptr %36, align 8, !tbaa !29
  %38 = mul nsw i32 %32, %37
  %39 = sext i32 %38 to i64
  %40 = getelementptr inbounds i8, ptr %29, i64 %39
  store ptr %40, ptr %5, align 8, !tbaa !55
  %41 = load ptr, ptr %5, align 8, !tbaa !55
  %42 = load ptr, ptr %3, align 8, !tbaa !17
  %43 = getelementptr inbounds nuw %struct.fieldnode, ptr %42, i32 0, i32 6
  %44 = load i32, ptr %43, align 8, !tbaa !29
  %45 = call ptr @After_End_Of_Data(ptr noundef %41, i32 noundef %44)
  store ptr %45, ptr %4, align 8, !tbaa !55
  %46 = load ptr, ptr %4, align 8, !tbaa !55
  %47 = load ptr, ptr %5, align 8, !tbaa !55
  %48 = load ptr, ptr %3, align 8, !tbaa !17
  %49 = getelementptr inbounds nuw %struct.fieldnode, ptr %48, i32 0, i32 6
  %50 = load i32, ptr %49, align 8, !tbaa !29
  %51 = sext i32 %50 to i64
  %52 = getelementptr inbounds i8, ptr %47, i64 %51
  %53 = icmp eq ptr %46, %52
  br i1 %53, label %54, label %57

54:                                               ; preds = %1
  %55 = load ptr, ptr %4, align 8, !tbaa !55
  %56 = getelementptr inbounds i8, ptr %55, i32 -1
  store ptr %56, ptr %4, align 8, !tbaa !55
  br label %57

57:                                               ; preds = %54, %1
  %58 = load ptr, ptr %2, align 8, !tbaa !4
  %59 = load ptr, ptr %4, align 8, !tbaa !55
  call void @Adjust_Cursor_Position(ptr noundef %58, ptr noundef %59)
  call void @llvm.lifetime.end.p0(i64 8, ptr %5) #9
  call void @llvm.lifetime.end.p0(i64 8, ptr %4) #9
  call void @llvm.lifetime.end.p0(i64 8, ptr %3) #9
  ret i32 0
}