; Function Attrs: nounwind uwtable
define internal noundef i32 @IFN_End_Of_Line(ptr noundef captures(none) %0) #0 {
  %2 = getelementptr inbounds nuw i8, ptr %0, i64 72
  %3 = load ptr, ptr %2, align 8, !tbaa !14
  tail call fastcc void @Synchronize_Buffer(ptr noundef %0)
  %4 = load ptr, ptr %2, align 8, !tbaa !14
  %5 = getelementptr inbounds nuw i8, ptr %4, i64 104
  %6 = load ptr, ptr %5, align 8, !tbaa !52
  %7 = getelementptr inbounds nuw i8, ptr %4, i64 16
  %8 = load i32, ptr %7, align 8, !tbaa !26
  %9 = getelementptr inbounds nuw i8, ptr %0, i64 8
  %10 = load i32, ptr %9, align 8, !tbaa !17
  %11 = mul nsw i32 %10, %8
  %12 = sext i32 %11 to i64
  %13 = getelementptr inbounds i8, ptr %6, i64 %12
  %14 = getelementptr inbounds nuw i8, ptr %3, i64 16
  %15 = load i32, ptr %14, align 8, !tbaa !26
  %16 = sext i32 %15 to i64
  %17 = getelementptr inbounds i8, ptr %13, i64 %16
  br label %18

18:                                               ; preds = %20, %1
  %.0.i = phi ptr [ %17, %1 ], [ %21, %20 ]
  %19 = icmp ugt ptr %.0.i, %13
  br i1 %19, label %20, label %After_End_Of_Data.exit

20:                                               ; preds = %18
  %21 = getelementptr inbounds i8, ptr %.0.i, i64 -1
  %22 = load i8, ptr %21, align 1, !tbaa !54
  %23 = icmp eq i8 %22, 32
  br i1 %23, label %18, label %After_End_Of_Data.exit, !llvm.loop !57

After_End_Of_Data.exit:                           ; preds = %18, %20
  %24 = icmp eq ptr %.0.i, %17
  %spec.select.idx = sext i1 %24 to i64
  %spec.select = getelementptr inbounds i8, ptr %.0.i, i64 %spec.select.idx
  %25 = ptrtoint ptr %spec.select to i64
  %26 = ptrtoint ptr %6 to i64
  %27 = sub i64 %25, %26
  %28 = trunc i64 %27 to i32
  %29 = sdiv i32 %28, %8
  store i32 %29, ptr %9, align 8, !tbaa !17
  %30 = getelementptr inbounds nuw i8, ptr %4, i64 4
  %31 = load i16, ptr %30, align 4, !tbaa !27
  %32 = sext i16 %31 to i32
  %33 = mul nsw i32 %29, %32
  %34 = sub nsw i32 %28, %33
  %35 = getelementptr inbounds nuw i8, ptr %0, i64 12
  store i32 %34, ptr %35, align 4, !tbaa !18
  %36 = getelementptr inbounds nuw i8, ptr %4, i64 12
  %37 = load i32, ptr %36, align 4, !tbaa !24
  %38 = icmp slt i32 %37, %29
  br i1 %38, label %39, label %Adjust_Cursor_Position.exit

39:                                               ; preds = %After_End_Of_Data.exit
  store i32 0, ptr %9, align 8, !tbaa !17
  br label %Adjust_Cursor_Position.exit

Adjust_Cursor_Position.exit:                      ; preds = %After_End_Of_Data.exit, %39
  ret i32 0
}